target datalayout = "e-m:e-p270:32:32-p271:32:32-p272:64:64-i64:64-i128:128-f80:128-n8:16:32:64-S128"
target triple = "x86_64-pc-linux-gnu"

%class.ShenandoahPacer = type { ptr, double, ptr, ptr, %struct.ShenandoahSharedFlag, %class.ShenandoahPeriodicPacerNotifyTask, i64, double, [64 x i8], i64, [64 x i8], [64 x i8], i64, [64 x i8] }
%struct.ShenandoahSharedFlag = type { [64 x i8], i8, [64 x i8] }
%class.ShenandoahPeriodicPacerNotifyTask = type { %class.PeriodicTask, ptr }
%class.PeriodicTask = type { ptr, i32, i32 }
%"struct.Atomic::StoreImpl" = type { i8 }
%"struct.Atomic::PlatformStore" = type { i8 }

; Function Attrs: mustprogress nounwind uwtable
define linkonce_odr hidden void @_ZNK6Atomic13PlatformStoreILm8EEclIlEEvPVT_S3_(ptr noundef nonnull align 1 dereferenceable(1) %0, ptr noundef %1, i64 noundef %2) #1 comdat align 2 {
  %4 = alloca ptr, align 8
  %5 = alloca ptr, align 8
  %6 = alloca i64, align 8
  store ptr %0, ptr %4, align 8
  store ptr %1, ptr %5, align 8
  store i64 %2, ptr %6, align 8
  %7 = load i64, ptr %6, align 8
  %8 = load ptr, ptr %5, align 8
  store volatile i64 %7, ptr %8, align 8
  ret void
}

; Function Attrs: mustprogress nounwind uwtable
define linkonce_odr hidden void @_ZNK6Atomic9StoreImplIllNS_13PlatformStoreILm8EEEvEclEPVll(ptr noundef nonnull align 1 dereferenceable(1) %0, ptr noundef %1, i64 noundef %2) #1 comdat align 2 {
  %4 = alloca ptr, align 8
  %5 = alloca ptr, align 8
  %6 = alloca i64, align 8
  %7 = alloca %"struct.Atomic::PlatformStore", align 1
  store ptr %0, ptr %4, align 8
  store ptr %1, ptr %5, align 8
  store i64 %2, ptr %6, align 8
  %8 = load ptr, ptr %5, align 8
  %9 = load i64, ptr %6, align 8
  call void @_ZNK6Atomic13PlatformStoreILm8EEclIlEEvPVT_S3_(ptr noundef nonnull align 1 dereferenceable(1) %7, ptr noundef %8, i64 noundef %9)
  ret void
}

; Function Attrs: mustprogress nounwind uwtable
define linkonce_odr hidden void @_ZN6Atomic5storeIllEEvPVT_T0_(ptr noundef %0, i64 noundef %1) #1 comdat align 2 {
  %3 = alloca ptr, align 8
  %4 = alloca i64, align 8
  %5 = alloca %"struct.Atomic::StoreImpl", align 1
  store ptr %0, ptr %3, align 8
  store i64 %1, ptr %4, align 8
  %6 = load ptr, ptr %3, align 8
  %7 = load i64, ptr %4, align 8
  call void @_ZNK6Atomic9StoreImplIllNS_13PlatformStoreILm8EEEvEclEPVll(ptr noundef nonnull align 1 dereferenceable(1) %5, ptr noundef %6, i64 noundef %7)
  ret void
}

; Function Attrs: mustprogress nounwind uwtable
define hidden noundef i64 @_ZN15ShenandoahPacer31update_and_get_progress_historyEv(ptr noundef nonnull align 8 dereferenceable(480) %0) #1 align 2 {
  %2 = alloca i64, align 8
  %3 = alloca ptr, align 8
  store ptr %0, ptr %3, align 8
  %4 = load ptr, ptr %3, align 8
  %5 = getelementptr inbounds %class.ShenandoahPacer, ptr %4, i32 0, i32 12
  %6 = load volatile i64, ptr %5, align 8
  %7 = icmp eq i64 %6, -1
  br i1 %7, label %8, label %19

8:                                                ; preds = %1
  %9 = getelementptr inbounds %class.ShenandoahPacer, ptr %4, i32 0, i32 12
  call void @_ZN6Atomic5storeIllEEvPVT_T0_(ptr noundef %9, i64 noundef 0)
  %10 = getelementptr inbounds %class.ShenandoahPacer, ptr %4, i32 0, i32 0
  %11 = load ptr, ptr %10, align 8
  %12 = load ptr, ptr %11, align 8
  %13 = getelementptr inbounds ptr, ptr %12, i64 15
  %14 = load ptr, ptr %13, align 8
  %15 = call noundef i64 %14(ptr noundef nonnull align 8 dereferenceable(2657) %11)
  %16 = uitofp i64 %15 to double
  %17 = fmul double %16, 1.000000e-01
  %18 = fptoui double %17 to i64
  store i64 %18, ptr %2, align 8
  br label %34

19:                                               ; preds = %1
  %20 = getelementptr inbounds %class.ShenandoahPacer, ptr %4, i32 0, i32 2
  %21 = load ptr, ptr %20, align 8
  %22 = getelementptr inbounds %class.ShenandoahPacer, ptr %4, i32 0, i32 12
  %23 = load volatile i64, ptr %22, align 8
  %24 = sitofp i64 %23 to double
  %25 = load ptr, ptr %21, align 8
  %26 = getelementptr inbounds ptr, ptr %25, i64 1
  %27 = load ptr, ptr %26, align 8
  call void %27(ptr noundef nonnull align 8 dereferenceable(72) %21, double noundef %24)
  %28 = getelementptr inbounds %class.ShenandoahPacer, ptr %4, i32 0, i32 12
  call void @_ZN6Atomic5storeIllEEvPVT_T0_(ptr noundef %28, i64 noundef 0)
  %29 = getelementptr inbounds %class.ShenandoahPacer, ptr %4, i32 0, i32 2
  %30 = load ptr, ptr %29, align 8
  %31 = call noundef double @_ZNK6AbsSeq3avgEv(ptr noundef nonnull align 8 dereferenceable(56) %30)
  %32 = fmul double %31, 8.000000e+00
  %33 = fptoui double %32 to i64
  store i64 %33, ptr %2, align 8
  br label %34

34:                                               ; preds = %19, %8
  %35 = load i64, ptr %2, align 8
  ret i64 %35
}