; Function Attrs: mustprogress nounwind uwtable
define hidden noundef i64 @_ZN15ShenandoahPacer31update_and_get_progress_historyEv(ptr noundef nonnull align 8 dereferenceable(480) %0) local_unnamed_addr #0 align 2 {
  %2 = getelementptr inbounds i8, ptr %0, i64 408
  %3 = load volatile i64, ptr %2, align 8
  %4 = icmp eq i64 %3, -1
  br i1 %4, label %5, label %13

5:                                                ; preds = %1
  store volatile i64 0, ptr %2, align 8
  %6 = load ptr, ptr %0, align 8
  %7 = load ptr, ptr %6, align 8
  %8 = getelementptr inbounds i8, ptr %7, i64 120
  %9 = load ptr, ptr %8, align 8
  %10 = tail call noundef i64 %9(ptr noundef nonnull align 8 dereferenceable(2657) %6) #8
  %11 = uitofp i64 %10 to double
  %12 = fmul double %11, 1.000000e-01
  br label %24

13:                                               ; preds = %1
  %14 = getelementptr inbounds i8, ptr %0, i64 16
  %15 = load ptr, ptr %14, align 8
  %16 = load volatile i64, ptr %2, align 8
  %17 = sitofp i64 %16 to double
  %18 = load ptr, ptr %15, align 8
  %19 = getelementptr inbounds i8, ptr %18, i64 8
  %20 = load ptr, ptr %19, align 8
  tail call void %20(ptr noundef nonnull align 8 dereferenceable(72) %15, double noundef %17) #8
  store volatile i64 0, ptr %2, align 8
  %21 = load ptr, ptr %14, align 8
  %22 = tail call noundef double @_ZNK6AbsSeq3avgEv(ptr noundef nonnull align 8 dereferenceable(56) %21) #8
  %23 = fmul double %22, 8.000000e+00
  br label %24

24:                                               ; preds = %13, %5
  %.0.in = phi double [ %12, %5 ], [ %23, %13 ]
  %.0 = fptoui double %.0.in to i64
  ret i64 %.0
}